target datalayout = "e-m:e-p270:32:32-p271:32:32-p272:64:64-i64:64-i128:128-f80:128-n8:16:32:64-S128"
target triple = "x86_64-pc-linux-gnu"

%struct._GArray = type { ptr, i32 }
%struct.wtap_dumper = type { ptr, i32, i32, i32, i32, i8, i64, ptr, ptr, ptr, ptr, ptr, ptr, ptr, ptr, ptr, ptr, ptr, ptr, ptr, i32, i32, i32 }
%struct.erf_dump_t = type { i8, i8, i64, i64, i64, i8, i64, i64, i64, ptr, ptr, ptr, ptr }

@.str.41 = private unnamed_addr constant [12 x i8] c"ERF_HOST_ID\00", align 1

; Function Attrs: null_pointer_is_valid sspstrong uwtable
define internal zeroext i1 @get_user_comment_string(ptr noundef %0, ptr noundef %1) #0 {
  %3 = alloca i1, align 1
  %4 = alloca ptr, align 8
  %5 = alloca ptr, align 8
  %6 = alloca ptr, align 8
  %7 = alloca i32, align 4
  %8 = alloca i32, align 4
  store ptr %0, ptr %4, align 8
  store ptr %1, ptr %5, align 8
  call void @llvm.lifetime.start.p0(i64 8, ptr %6) #16
  call void @llvm.lifetime.start.p0(i64 4, ptr %7) #16
  store ptr null, ptr %6, align 8
  %9 = load ptr, ptr %4, align 8
  %10 = getelementptr inbounds nuw %struct.wtap_dumper, ptr %9, i32 0, i32 13
  %11 = load ptr, ptr %10, align 8
  %12 = icmp ne ptr %11, null
  br i1 %12, label %13, label %28

13:                                               ; preds = %2
  %14 = load ptr, ptr %4, align 8
  %15 = getelementptr inbounds nuw %struct.wtap_dumper, ptr %14, i32 0, i32 13
  %16 = load ptr, ptr %15, align 8
  %17 = getelementptr inbounds nuw %struct._GArray, ptr %16, i32 0, i32 1
  %18 = load i32, ptr %17, align 8
  %19 = icmp ugt i32 %18, 0
  br i1 %19, label %20, label %28

20:                                               ; preds = %13
  %21 = load ptr, ptr %4, align 8
  %22 = getelementptr inbounds nuw %struct.wtap_dumper, ptr %21, i32 0, i32 13
  %23 = load ptr, ptr %22, align 8
  %24 = getelementptr inbounds nuw %struct._GArray, ptr %23, i32 0, i32 0
  %25 = load ptr, ptr %24, align 8
  %26 = getelementptr ptr, ptr %25, i64 0
  %27 = load ptr, ptr %26, align 8
  store ptr %27, ptr %6, align 8
  br label %28

28:                                               ; preds = %20, %13, %2
  %29 = load ptr, ptr %6, align 8
  %30 = icmp ne ptr %29, null
  br i1 %30, label %31, label %39

31:                                               ; preds = %28
  %32 = load ptr, ptr %6, align 8
  %33 = load ptr, ptr %5, align 8
  %34 = call i32 @wtap_block_get_nth_string_option_value(ptr noundef %32, i32 noundef 1, i32 noundef 0, ptr noundef %33)
  store i32 %34, ptr %7, align 4
  %35 = load i32, ptr %7, align 4
  %36 = icmp ne i32 %35, 0
  br i1 %36, label %37, label %38

37:                                               ; preds = %31
  store i1 false, ptr %3, align 1
  store i32 1, ptr %8, align 4
  br label %40

38:                                               ; preds = %31
  br label %39

39:                                               ; preds = %38, %28
  store i1 true, ptr %3, align 1
  store i32 1, ptr %8, align 4
  br label %40

40:                                               ; preds = %39, %37
  call void @llvm.lifetime.end.p0(i64 4, ptr %7) #16
  call void @llvm.lifetime.end.p0(i64 8, ptr %6) #16
  %41 = load i1, ptr %3, align 1
  ret i1 %41
}

; Function Attrs: null_pointer_is_valid sspstrong uwtable
define internal ptr @erf_dump_priv_create() #0 {
  %1 = alloca ptr, align 8
  %2 = alloca i64, align 8
  %3 = alloca i64, align 8
  %4 = alloca ptr, align 8
  %5 = alloca ptr, align 8
  call void @llvm.lifetime.start.p0(i64 8, ptr %1) #16
  call void @llvm.lifetime.start.p0(i64 8, ptr %2) #16
  store i64 1, ptr %2, align 8
  call void @llvm.lifetime.start.p0(i64 8, ptr %3) #16
  store i64 96, ptr %3, align 8
  call void @llvm.lifetime.start.p0(i64 8, ptr %4) #16
  %6 = load i64, ptr %3, align 8
  %7 = icmp eq i64 %6, 1
  br i1 %7, label %8, label %11

8:                                                ; preds = %0
  %9 = load i64, ptr %2, align 8
  %10 = call noalias ptr @g_malloc(i64 noundef %9) #17
  store ptr %10, ptr %4, align 8
  br label %32

11:                                               ; preds = %0
  %12 = load i64, ptr %2, align 8
  %13 = call i1 @llvm.is.constant.i64(i64 %12)
  br i1 %13, label %14, label %27

14:                                               ; preds = %11
  %15 = load i64, ptr %3, align 8
  %16 = icmp eq i64 %15, 0
  br i1 %16, label %22, label %17

17:                                               ; preds = %14
  %18 = load i64, ptr %2, align 8
  %19 = load i64, ptr %3, align 8
  %20 = udiv i64 -1, %19
  %21 = icmp ule i64 %18, %20
  br i1 %21, label %22, label %27

22:                                               ; preds = %17, %14
  %23 = load i64, ptr %2, align 8
  %24 = load i64, ptr %3, align 8
  %25 = mul i64 %23, %24
  %26 = call noalias ptr @g_malloc(i64 noundef %25) #17
  store ptr %26, ptr %4, align 8
  br label %31

27:                                               ; preds = %17, %11
  %28 = load i64, ptr %2, align 8
  %29 = load i64, ptr %3, align 8
  %30 = call noalias ptr @g_malloc_n(i64 noundef %28, i64 noundef %29) #18
  store ptr %30, ptr %4, align 8
  br label %31

31:                                               ; preds = %27, %22
  br label %32

32:                                               ; preds = %31, %8
  %33 = load ptr, ptr %4, align 8
  store ptr %33, ptr %5, align 8
  call void @llvm.lifetime.end.p0(i64 8, ptr %4) #16
  call void @llvm.lifetime.end.p0(i64 8, ptr %3) #16
  call void @llvm.lifetime.end.p0(i64 8, ptr %2) #16
  %34 = load ptr, ptr %5, align 8
  store ptr %34, ptr %1, align 8
  %35 = load ptr, ptr %1, align 8
  %36 = getelementptr inbounds nuw %struct.erf_dump_t, ptr %35, i32 0, i32 0
  store i8 0, ptr %36, align 8
  %37 = load ptr, ptr %1, align 8
  %38 = getelementptr inbounds nuw %struct.erf_dump_t, ptr %37, i32 0, i32 1
  store i8 0, ptr %38, align 1
  %39 = load ptr, ptr %1, align 8
  %40 = getelementptr inbounds nuw %struct.erf_dump_t, ptr %39, i32 0, i32 6
  store i64 0, ptr %40, align 8
  %41 = load ptr, ptr %1, align 8
  %42 = getelementptr inbounds nuw %struct.erf_dump_t, ptr %41, i32 0, i32 2
  store i64 0, ptr %42, align 8
  %43 = load ptr, ptr %1, align 8
  %44 = getelementptr inbounds nuw %struct.erf_dump_t, ptr %43, i32 0, i32 3
  store i64 -1, ptr %44, align 8
  %45 = load ptr, ptr %1, align 8
  %46 = getelementptr inbounds nuw %struct.erf_dump_t, ptr %45, i32 0, i32 7
  store i64 0, ptr %46, align 8
  %47 = load ptr, ptr %1, align 8
  %48 = getelementptr inbounds nuw %struct.erf_dump_t, ptr %47, i32 0, i32 8
  store i64 0, ptr %48, align 8
  %49 = load ptr, ptr %1, align 8
  %50 = getelementptr inbounds nuw %struct.erf_dump_t, ptr %49, i32 0, i32 4
  store i64 0, ptr %50, align 8
  %51 = load ptr, ptr %1, align 8
  %52 = getelementptr inbounds nuw %struct.erf_dump_t, ptr %51, i32 0, i32 5
  store i8 0, ptr %52, align 8
  %53 = load ptr, ptr %1, align 8
  %54 = getelementptr inbounds nuw %struct.erf_dump_t, ptr %53, i32 0, i32 9
  store ptr null, ptr %54, align 8
  %55 = load ptr, ptr %1, align 8
  %56 = getelementptr inbounds nuw %struct.erf_dump_t, ptr %55, i32 0, i32 10
  store ptr null, ptr %56, align 8
  %57 = call ptr @g_array_new(i32 noundef 0, i32 noundef 0, i32 noundef 8)
  %58 = load ptr, ptr %1, align 8
  %59 = getelementptr inbounds nuw %struct.erf_dump_t, ptr %58, i32 0, i32 11
  store ptr %57, ptr %59, align 8
  %60 = call ptr @g_rand_new()
  %61 = load ptr, ptr %1, align 8
  %62 = getelementptr inbounds nuw %struct.erf_dump_t, ptr %61, i32 0, i32 12
  store ptr %60, ptr %62, align 8
  %63 = load ptr, ptr %1, align 8
  call void @llvm.lifetime.end.p0(i64 8, ptr %1) #16
  ret ptr %63
}

; Function Attrs: null_pointer_is_valid sspstrong uwtable
define internal zeroext i1 @erf_dump_open(ptr noundef %0, ptr noundef %1, ptr noundef %2) #0 {
  %4 = alloca ptr, align 8
  %5 = alloca ptr, align 8
  %6 = alloca ptr, align 8
  %7 = alloca ptr, align 8
  %8 = alloca ptr, align 8
  %9 = alloca i64, align 8
  %10 = alloca ptr, align 8
  store ptr %0, ptr %4, align 8
  store ptr %1, ptr %5, align 8
  store ptr %2, ptr %6, align 8
  call void @llvm.lifetime.start.p0(i64 8, ptr %7) #16
  call void @llvm.lifetime.start.p0(i64 8, ptr %8) #16
  call void @llvm.lifetime.start.p0(i64 8, ptr %9) #16
  call void @llvm.lifetime.start.p0(i64 8, ptr %10) #16
  store ptr null, ptr %10, align 8
  %11 = call ptr @erf_dump_priv_create()
  store ptr %11, ptr %7, align 8
  %12 = load ptr, ptr %4, align 8
  %13 = getelementptr inbounds nuw %struct.wtap_dumper, ptr %12, i32 0, i32 10
  store ptr @erf_dump, ptr %13, align 8
  %14 = load ptr, ptr %7, align 8
  %15 = load ptr, ptr %4, align 8
  %16 = getelementptr inbounds nuw %struct.wtap_dumper, ptr %15, i32 0, i32 7
  store ptr %14, ptr %16, align 8
  %17 = load ptr, ptr %4, align 8
  %18 = getelementptr inbounds nuw %struct.wtap_dumper, ptr %17, i32 0, i32 11
  store ptr @erf_dump_finish, ptr %18, align 8
  %19 = load ptr, ptr %4, align 8
  %20 = call zeroext i1 @get_user_comment_string(ptr noundef %19, ptr noundef %10)
  %21 = load ptr, ptr %10, align 8
  %22 = call noalias ptr @g_strdup(ptr noundef %21)
  %23 = load ptr, ptr %7, align 8
  %24 = getelementptr inbounds nuw %struct.erf_dump_t, ptr %23, i32 0, i32 9
  store ptr %22, ptr %24, align 8
  %25 = load ptr, ptr %7, align 8
  %26 = getelementptr inbounds nuw %struct.erf_dump_t, ptr %25, i32 0, i32 9
  %27 = load ptr, ptr %26, align 8
  %28 = icmp ne ptr %27, null
  br i1 %28, label %34, label %29

29:                                               ; preds = %3
  %30 = load ptr, ptr %4, align 8
  %31 = getelementptr inbounds nuw %struct.wtap_dumper, ptr %30, i32 0, i32 3
  %32 = load i32, ptr %31, align 8
  %33 = icmp ne i32 %32, 98
  br i1 %33, label %34, label %37

34:                                               ; preds = %29, %3
  %35 = load ptr, ptr %7, align 8
  %36 = getelementptr inbounds nuw %struct.erf_dump_t, ptr %35, i32 0, i32 0
  store i8 1, ptr %36, align 8
  br label %37

37:                                               ; preds = %34, %29
  %38 = call ptr @getenv(ptr noundef @.str.41) #16
  store ptr %38, ptr %8, align 8
  %39 = icmp ne ptr %38, null
  br i1 %39, label %40, label %49

40:                                               ; preds = %37
  %41 = load ptr, ptr %8, align 8
  %42 = call zeroext i1 @ws_hexstrtou64(ptr noundef %41, ptr noundef null, ptr noundef %9)
  br i1 %42, label %43, label %48

43:                                               ; preds = %40
  %44 = load i64, ptr %9, align 8
  %45 = and i64 %44, 281474976710655
  %46 = load ptr, ptr %7, align 8
  %47 = getelementptr inbounds nuw %struct.erf_dump_t, ptr %46, i32 0, i32 2
  store i64 %45, ptr %47, align 8
  br label %48

48:                                               ; preds = %43, %40
  br label %49

49:                                               ; preds = %48, %37
  call void @llvm.lifetime.end.p0(i64 8, ptr %10) #16
  call void @llvm.lifetime.end.p0(i64 8, ptr %9) #16
  call void @llvm.lifetime.end.p0(i64 8, ptr %8) #16
  call void @llvm.lifetime.end.p0(i64 8, ptr %7) #16
  ret i1 true
}