; Function Attrs: null_pointer_is_valid sspstrong uwtable
define internal noundef zeroext i1 @erf_dump_open(ptr noundef captures(none) initializes((40, 48), (64, 80)) %0, ptr readnone captures(none) %1, ptr readnone captures(none) %2) #0 {
  %4 = alloca i64, align 8
  %5 = alloca ptr, align 8
  call void @llvm.lifetime.start.p0(i64 8, ptr nonnull %4) #16
  call void @llvm.lifetime.start.p0(i64 8, ptr nonnull %5) #16
  store ptr null, ptr %5, align 8
  %6 = tail call noalias dereferenceable_or_null(96) ptr @g_malloc(i64 noundef 96) #15
  store i8 0, ptr %6, align 8
  %7 = getelementptr inbounds nuw i8, ptr %6, i64 1
  store i8 0, ptr %7, align 1
  %8 = getelementptr inbounds nuw i8, ptr %6, i64 40
  store i64 0, ptr %8, align 8
  %9 = getelementptr inbounds nuw i8, ptr %6, i64 8
  store i64 0, ptr %9, align 8
  %10 = getelementptr inbounds nuw i8, ptr %6, i64 16
  store i64 -1, ptr %10, align 8
  %11 = getelementptr inbounds nuw i8, ptr %6, i64 48
  %12 = getelementptr inbounds nuw i8, ptr %6, i64 24
  store i64 0, ptr %12, align 8
  %13 = getelementptr inbounds nuw i8, ptr %6, i64 32
  store i8 0, ptr %13, align 8
  tail call void @llvm.memset.p0.i64(ptr noundef nonnull align 8 dereferenceable(32) %11, i8 0, i64 32, i1 false)
  %14 = tail call ptr @g_array_new(i32 noundef 0, i32 noundef 0, i32 noundef 8)
  %15 = getelementptr inbounds nuw i8, ptr %6, i64 80
  store ptr %14, ptr %15, align 8
  %16 = tail call ptr @g_rand_new()
  %17 = getelementptr inbounds nuw i8, ptr %6, i64 88
  store ptr %16, ptr %17, align 8
  %18 = getelementptr inbounds nuw i8, ptr %0, i64 64
  store ptr @erf_dump, ptr %18, align 8
  %19 = getelementptr inbounds nuw i8, ptr %0, i64 40
  store ptr %6, ptr %19, align 8
  %20 = getelementptr inbounds nuw i8, ptr %0, i64 72
  store ptr @erf_dump_finish, ptr %20, align 8
  %21 = getelementptr i8, ptr %0, i64 88
  %.val = load ptr, ptr %21, align 8
  %.not.i = icmp eq ptr %.val, null
  br i1 %.not.i, label %get_user_comment_string.exit, label %22

22:                                               ; preds = %3
  %23 = getelementptr inbounds nuw i8, ptr %.val, i64 8
  %24 = load i32, ptr %23, align 8
  %.not9.i = icmp eq i32 %24, 0
  br i1 %.not9.i, label %get_user_comment_string.exit, label %25

25:                                               ; preds = %22
  %26 = load ptr, ptr %.val, align 8
  %27 = load ptr, ptr %26, align 8
  %.not10.i = icmp eq ptr %27, null
  br i1 %.not10.i, label %get_user_comment_string.exit, label %28

28:                                               ; preds = %25
  %29 = call i32 @wtap_block_get_nth_string_option_value(ptr noundef nonnull %27, i32 noundef 1, i32 noundef 0, ptr noundef nonnull %5)
  %.pre = load ptr, ptr %5, align 8
  br label %get_user_comment_string.exit

get_user_comment_string.exit:                     ; preds = %28, %3, %22, %25
  %30 = phi ptr [ %.pre, %28 ], [ null, %3 ], [ null, %22 ], [ null, %25 ]
  %31 = call noalias ptr @g_strdup(ptr noundef %30)
  %32 = getelementptr inbounds nuw i8, ptr %6, i64 64
  store ptr %31, ptr %32, align 8
  %.not = icmp eq ptr %31, null
  br i1 %.not, label %33, label %36

33:                                               ; preds = %get_user_comment_string.exit
  %34 = getelementptr inbounds nuw i8, ptr %0, i64 16
  %35 = load i32, ptr %34, align 8
  %.not11 = icmp eq i32 %35, 98
  br i1 %.not11, label %37, label %36

36:                                               ; preds = %33, %get_user_comment_string.exit
  store i8 1, ptr %6, align 8
  br label %37

37:                                               ; preds = %36, %33
  %38 = call ptr @getenv(ptr noundef nonnull @.str.41) #16
  %.not12 = icmp eq ptr %38, null
  br i1 %.not12, label %44, label %39

39:                                               ; preds = %37
  %40 = call zeroext i1 @ws_hexstrtou64(ptr noundef nonnull %38, ptr noundef null, ptr noundef nonnull %4)
  br i1 %40, label %41, label %44

41:                                               ; preds = %39
  %42 = load i64, ptr %4, align 8
  %43 = and i64 %42, 281474976710655
  store i64 %43, ptr %9, align 8
  br label %44

44:                                               ; preds = %39, %41, %37
  call void @llvm.lifetime.end.p0(i64 8, ptr nonnull %5) #16
  call void @llvm.lifetime.end.p0(i64 8, ptr nonnull %4) #16
  ret i1 true
}